; Function Attrs: nounwind uwtable
define dso_local i32 @get_constraint_index(i32 noundef %0) local_unnamed_addr #0 {
  %2 = zext i32 %0 to i64
  %3 = tail call ptr @SearchSysCache1(i32 noundef 19, i64 noundef %2) #8
  %.not = icmp eq ptr %3, null
  br i1 %.not, label %16, label %4

4:                                                ; preds = %1
  %5 = getelementptr i8, ptr %3, i64 16
  %.val = load ptr, ptr %5, align 8
  %6 = getelementptr inbounds nuw i8, ptr %.val, i64 22
  %7 = load i8, ptr %6, align 2
  %8 = zext i8 %7 to i64
  %9 = getelementptr inbounds nuw i8, ptr %.val, i64 %8
  %10 = getelementptr inbounds nuw i8, ptr %9, i64 72
  %11 = load i8, ptr %10, align 4
  switch i8 %11, label %15 [
    i8 117, label %12
    i8 112, label %12
    i8 120, label %12
  ]

12:                                               ; preds = %4, %4, %4
  %13 = getelementptr inbounds nuw i8, ptr %9, i64 88
  %14 = load i32, ptr %13, align 4
  br label %15

15:                                               ; preds = %4, %12
  %.0 = phi i32 [ %14, %12 ], [ 0, %4 ]
  tail call void @ReleaseSysCache(ptr noundef nonnull %3) #8
  br label %16

16:                                               ; preds = %1, %15
  %.09 = phi i32 [ %.0, %15 ], [ 0, %1 ]
  ret i32 %.09
}